target datalayout = "e-m:e-p270:32:32-p271:32:32-p272:64:64-i64:64-i128:128-f80:128-n8:16:32:64-S128"
target triple = "x86_64-pc-linux-gnu"

%struct.lua_State = type { %struct.GCRef, i8, i8, i8, i8, %struct.MRef, %struct.GCRef, ptr, ptr, %struct.MRef, %struct.MRef, %struct.GCRef, %struct.GCRef, ptr, i32 }
%struct.MRef = type { i64 }
%struct.GCRef = type { i64 }
%union.TValue = type { i64 }
%struct.global_State = type { ptr, ptr, %struct.GCState, %struct.GCstr, i8, i8, i8, i8, %struct.StrInternState, i32, %struct.GCRef, %struct.SBuf, %union.TValue, %union.TValue, %struct.Node, %union.TValue, %struct.GCupval, i32, i32, ptr, ptr, ptr, i32, i32, %struct.GCRef, %struct.MRef, %struct.MRef, %struct.PRNGState, [39 x %struct.GCRef] }
%struct.GCState = type { i64, i64, i8, i8, i8, i8, i32, %struct.GCRef, %struct.MRef, %struct.GCRef, %struct.GCRef, %struct.GCRef, %struct.GCRef, i64, i64, i32, i32, %struct.MRef }
%struct.GCstr = type { %struct.GCRef, i8, i8, i8, i8, i32, i32, i32 }
%struct.StrInternState = type { ptr, i32, i32, i32, i8, i8, i8, i8, i64 }
%struct.SBuf = type { ptr, ptr, ptr, %struct.MRef }
%struct.Node = type { %union.TValue, %union.TValue, %struct.MRef }
%struct.GCupval = type { %struct.GCRef, i8, i8, i8, i8, %union.anon, %struct.MRef, i32 }
%union.anon = type { %struct.anon.1 }
%struct.anon.1 = type { %struct.GCRef, %struct.GCRef }
%struct.PRNGState = type { [4 x i64] }
%struct.GCfuncC = type { %struct.GCRef, i8, i8, i8, i8, %struct.GCRef, %struct.GCRef, %struct.MRef, ptr, [1 x %union.TValue] }
%struct.GCudata = type { %struct.GCRef, i8, i8, i8, i8, %struct.GCRef, i32, %struct.GCRef, i32 }

@.str.1 = private unnamed_addr constant [24 x i8] c"store to dead GC object\00", align 1

; Function Attrs: alwaysinline nounwind uwtable
define internal void @checklivetv(ptr noundef %0, ptr noundef %1, ptr noundef %2) #4 {
  %4 = alloca ptr, align 8
  %5 = alloca ptr, align 8
  %6 = alloca ptr, align 8
  store ptr %0, ptr %4, align 8, !tbaa !4
  store ptr %1, ptr %5, align 8, !tbaa !22
  store ptr %2, ptr %6, align 8, !tbaa !20
  ret void
}

; Function Attrs: alwaysinline nounwind uwtable
define internal void @setgcVraw(ptr noundef %0, ptr noundef %1, i32 noundef %2) #4 {
  %4 = alloca ptr, align 8
  %5 = alloca ptr, align 8
  %6 = alloca i32, align 4
  store ptr %0, ptr %4, align 8, !tbaa !22
  store ptr %1, ptr %5, align 8, !tbaa !67
  store i32 %2, ptr %6, align 4, !tbaa !16
  %7 = load ptr, ptr %5, align 8, !tbaa !67
  %8 = ptrtoint ptr %7 to i64
  %9 = load i32, ptr %6, align 4, !tbaa !16
  %10 = zext i32 %9 to i64
  %11 = shl i64 %10, 47
  %12 = or i64 %8, %11
  %13 = load ptr, ptr %4, align 8, !tbaa !22
  %14 = getelementptr inbounds nuw %struct.GCRef, ptr %13, i32 0, i32 0
  store i64 %12, ptr %14, align 8, !tbaa !26
  ret void
}

; Function Attrs: alwaysinline nounwind uwtable
define internal void @setgcV(ptr noundef %0, ptr noundef %1, ptr noundef %2, i32 noundef %3) #4 {
  %5 = alloca ptr, align 8
  %6 = alloca ptr, align 8
  %7 = alloca ptr, align 8
  %8 = alloca i32, align 4
  store ptr %0, ptr %5, align 8, !tbaa !4
  store ptr %1, ptr %6, align 8, !tbaa !22
  store ptr %2, ptr %7, align 8, !tbaa !67
  store i32 %3, ptr %8, align 4, !tbaa !16
  %9 = load ptr, ptr %6, align 8, !tbaa !22
  %10 = load ptr, ptr %7, align 8, !tbaa !67
  %11 = load i32, ptr %8, align 4, !tbaa !16
  call void @setgcVraw(ptr noundef %9, ptr noundef %10, i32 noundef %11)
  %12 = load ptr, ptr %5, align 8, !tbaa !4
  %13 = load ptr, ptr %6, align 8, !tbaa !22
  call void @checklivetv(ptr noundef %12, ptr noundef %13, ptr noundef @.str.1)
  ret void
}

; Function Attrs: alwaysinline nounwind uwtable
define internal void @setudataV(ptr noundef %0, ptr noundef %1, ptr noundef %2) #4 {
  %4 = alloca ptr, align 8
  %5 = alloca ptr, align 8
  %6 = alloca ptr, align 8
  store ptr %0, ptr %4, align 8, !tbaa !4
  store ptr %1, ptr %5, align 8, !tbaa !22
  store ptr %2, ptr %6, align 8, !tbaa !73
  %7 = load ptr, ptr %4, align 8, !tbaa !4
  %8 = load ptr, ptr %5, align 8, !tbaa !22
  %9 = load ptr, ptr %6, align 8, !tbaa !73
  call void @setgcV(ptr noundef %7, ptr noundef %8, ptr noundef %9, i32 noundef -13)
  ret void
}

; Function Attrs: nounwind uwtable
define internal ptr @getcurrenv(ptr noundef %0) #0 {
  %2 = alloca ptr, align 8
  %3 = alloca ptr, align 8
  store ptr %0, ptr %2, align 8, !tbaa !4
  call void @llvm.lifetime.start.p0(i64 8, ptr %3) #9
  %4 = load ptr, ptr %2, align 8, !tbaa !4
  %5 = getelementptr inbounds nuw %struct.lua_State, ptr %4, i32 0, i32 7
  %6 = load ptr, ptr %5, align 8, !tbaa !18
  %7 = getelementptr inbounds %union.TValue, ptr %6, i64 -2
  %8 = getelementptr inbounds nuw %struct.GCRef, ptr %7, i32 0, i32 0
  %9 = load i64, ptr %8, align 8, !tbaa !26
  %10 = and i64 %9, 140737488355327
  %11 = inttoptr i64 %10 to ptr
  store ptr %11, ptr %3, align 8, !tbaa !32
  %12 = load ptr, ptr %3, align 8, !tbaa !32
  %13 = getelementptr inbounds nuw %struct.GCfuncC, ptr %12, i32 0, i32 2
  %14 = load i8, ptr %13, align 1, !tbaa !26
  %15 = zext i8 %14 to i32
  %16 = icmp eq i32 %15, 8
  br i1 %16, label %17, label %23

17:                                               ; preds = %1
  %18 = load ptr, ptr %3, align 8, !tbaa !32
  %19 = getelementptr inbounds nuw %struct.GCfuncC, ptr %18, i32 0, i32 5
  %20 = getelementptr inbounds nuw %struct.GCRef, ptr %19, i32 0, i32 0
  %21 = load i64, ptr %20, align 8, !tbaa !26
  %22 = inttoptr i64 %21 to ptr
  br label %29

23:                                               ; preds = %1
  %24 = load ptr, ptr %2, align 8, !tbaa !4
  %25 = getelementptr inbounds nuw %struct.lua_State, ptr %24, i32 0, i32 12
  %26 = getelementptr inbounds nuw %struct.GCRef, ptr %25, i32 0, i32 0
  %27 = load i64, ptr %26, align 8, !tbaa !31
  %28 = inttoptr i64 %27 to ptr
  br label %29

29:                                               ; preds = %23, %17
  %30 = phi ptr [ %22, %17 ], [ %28, %23 ]
  call void @llvm.lifetime.end.p0(i64 8, ptr %3) #9
  ret ptr %30
}

; Function Attrs: nounwind uwtable
define dso_local ptr @lua_newuserdata(ptr noundef %0, i64 noundef %1) #0 {
  %3 = alloca ptr, align 8
  %4 = alloca i64, align 8
  %5 = alloca ptr, align 8
  store ptr %0, ptr %3, align 8, !tbaa !4
  store i64 %1, ptr %4, align 8, !tbaa !38
  call void @llvm.lifetime.start.p0(i64 8, ptr %5) #9
  %6 = load ptr, ptr %3, align 8, !tbaa !4
  %7 = getelementptr inbounds nuw %struct.lua_State, ptr %6, i32 0, i32 5
  %8 = getelementptr inbounds nuw %struct.MRef, ptr %7, i32 0, i32 0
  %9 = load i64, ptr %8, align 8, !tbaa !29
  %10 = inttoptr i64 %9 to ptr
  %11 = getelementptr inbounds nuw %struct.global_State, ptr %10, i32 0, i32 2
  %12 = getelementptr inbounds nuw %struct.GCState, ptr %11, i32 0, i32 0
  %13 = load i64, ptr %12, align 8, !tbaa !43
  %14 = load ptr, ptr %3, align 8, !tbaa !4
  %15 = getelementptr inbounds nuw %struct.lua_State, ptr %14, i32 0, i32 5
  %16 = getelementptr inbounds nuw %struct.MRef, ptr %15, i32 0, i32 0
  %17 = load i64, ptr %16, align 8, !tbaa !29
  %18 = inttoptr i64 %17 to ptr
  %19 = getelementptr inbounds nuw %struct.global_State, ptr %18, i32 0, i32 2
  %20 = getelementptr inbounds nuw %struct.GCState, ptr %19, i32 0, i32 1
  %21 = load i64, ptr %20, align 8, !tbaa !53
  %22 = icmp uge i64 %13, %21
  %23 = xor i1 %22, true
  %24 = xor i1 %23, true
  %25 = zext i1 %24 to i32
  %26 = sext i32 %25 to i64
  %27 = call i64 @llvm.expect.i64(i64 %26, i64 0)
  %28 = icmp ne i64 %27, 0
  br i1 %28, label %29, label %32

29:                                               ; preds = %2
  %30 = load ptr, ptr %3, align 8, !tbaa !4
  %31 = call i32 @lj_gc_step(ptr noundef %30)
  br label %32

32:                                               ; preds = %29, %2
  %33 = load i64, ptr %4, align 8, !tbaa !38
  %34 = icmp ugt i64 %33, 2147483392
  br i1 %34, label %35, label %37

35:                                               ; preds = %32
  %36 = load ptr, ptr %3, align 8, !tbaa !4
  call void @lj_err_msg(ptr noundef %36, i32 noundef 79) #10
  unreachable

37:                                               ; preds = %32
  %38 = load ptr, ptr %3, align 8, !tbaa !4
  %39 = load i64, ptr %4, align 8, !tbaa !38
  %40 = trunc i64 %39 to i32
  %41 = load ptr, ptr %3, align 8, !tbaa !4
  %42 = call ptr @getcurrenv(ptr noundef %41)
  %43 = call ptr @lj_udata_new(ptr noundef %38, i32 noundef %40, ptr noundef %42)
  store ptr %43, ptr %5, align 8, !tbaa !73
  %44 = load ptr, ptr %3, align 8, !tbaa !4
  %45 = load ptr, ptr %3, align 8, !tbaa !4
  %46 = getelementptr inbounds nuw %struct.lua_State, ptr %45, i32 0, i32 8
  %47 = load ptr, ptr %46, align 8, !tbaa !17
  %48 = load ptr, ptr %5, align 8, !tbaa !73
  call void @setudataV(ptr noundef %44, ptr noundef %47, ptr noundef %48)
  %49 = load ptr, ptr %3, align 8, !tbaa !4
  %50 = getelementptr inbounds nuw %struct.lua_State, ptr %49, i32 0, i32 8
  %51 = load ptr, ptr %50, align 8, !tbaa !17
  %52 = getelementptr inbounds nuw %union.TValue, ptr %51, i32 1
  store ptr %52, ptr %50, align 8, !tbaa !17
  %53 = load ptr, ptr %3, align 8, !tbaa !4
  %54 = getelementptr inbounds nuw %struct.lua_State, ptr %53, i32 0, i32 9
  %55 = getelementptr inbounds nuw %struct.MRef, ptr %54, i32 0, i32 0
  %56 = load i64, ptr %55, align 8, !tbaa !19
  %57 = inttoptr i64 %56 to ptr
  %58 = icmp uge ptr %52, %57
  br i1 %58, label %59, label %61

59:                                               ; preds = %37
  %60 = load ptr, ptr %3, align 8, !tbaa !4
  call void @lj_state_growstack1(ptr noundef %60)
  br label %61

61:                                               ; preds = %59, %37
  %62 = load ptr, ptr %5, align 8, !tbaa !73
  %63 = getelementptr inbounds %struct.GCudata, ptr %62, i64 1
  call void @llvm.lifetime.end.p0(i64 8, ptr %5) #9
  ret ptr %63
}