; Function Attrs: nounwind uwtable
define dso_local nonnull ptr @lua_newuserdata(ptr noundef %0, i64 noundef %1) local_unnamed_addr #1 {
  %3 = getelementptr inbounds nuw i8, ptr %0, i64 16
  %4 = load i64, ptr %3, align 8, !tbaa !21
  %5 = inttoptr i64 %4 to ptr
  %6 = getelementptr inbounds nuw i8, ptr %5, i64 16
  %7 = load i64, ptr %6, align 8, !tbaa !29
  %8 = getelementptr inbounds nuw i8, ptr %5, i64 24
  %9 = load i64, ptr %8, align 8, !tbaa !39
  %.not = icmp ult i64 %7, %9
  br i1 %.not, label %12, label %10, !prof !27

10:                                               ; preds = %2
  %11 = tail call i32 @lj_gc_step(ptr noundef nonnull %0) #13
  br label %12

12:                                               ; preds = %10, %2
  %13 = icmp ugt i64 %1, 2147483392
  br i1 %13, label %14, label %15

14:                                               ; preds = %12
  tail call void @lj_err_msg(ptr noundef nonnull %0, i32 noundef 79) #14
  unreachable

15:                                               ; preds = %12
  %16 = trunc nuw nsw i64 %1 to i32
  %17 = getelementptr inbounds nuw i8, ptr %0, i64 32
  %18 = load ptr, ptr %17, align 8, !tbaa !15
  %19 = getelementptr inbounds i8, ptr %18, i64 -16
  %20 = load i64, ptr %19, align 8, !tbaa !17
  %21 = and i64 %20, 140737488355327
  %22 = inttoptr i64 %21 to ptr
  %23 = getelementptr inbounds nuw i8, ptr %22, i64 9
  %24 = load i8, ptr %23, align 1, !tbaa !17
  %25 = icmp eq i8 %24, 8
  %26 = getelementptr inbounds nuw i8, ptr %22, i64 16
  %27 = getelementptr inbounds nuw i8, ptr %0, i64 72
  %.in.in.i = select i1 %25, ptr %26, ptr %27
  %.in.i = load i64, ptr %.in.in.i, align 8, !tbaa !17
  %28 = inttoptr i64 %.in.i to ptr
  %29 = tail call ptr @lj_udata_new(ptr noundef nonnull %0, i32 noundef %16, ptr noundef %28) #13
  %30 = getelementptr inbounds nuw i8, ptr %0, i64 40
  %31 = load ptr, ptr %30, align 8, !tbaa !14
  %32 = ptrtoint ptr %29 to i64
  %33 = or i64 %32, -1829587348619264
  store i64 %33, ptr %31, align 8, !tbaa !17
  %34 = load ptr, ptr %30, align 8, !tbaa !14
  %35 = getelementptr inbounds nuw i8, ptr %34, i64 8
  store ptr %35, ptr %30, align 8, !tbaa !14
  %36 = getelementptr inbounds nuw i8, ptr %0, i64 48
  %37 = load i64, ptr %36, align 8, !tbaa !16
  %38 = inttoptr i64 %37 to ptr
  %.not14 = icmp ult ptr %35, %38
  br i1 %.not14, label %40, label %39

39:                                               ; preds = %15
  tail call void @lj_state_growstack1(ptr noundef nonnull %0) #13
  br label %40

40:                                               ; preds = %39, %15
  %41 = getelementptr inbounds nuw i8, ptr %29, i64 48
  ret ptr %41
}